; Function Attrs: nofree norecurse nosync nounwind memory(argmem: readwrite) uwtable
define hidden void @aom_highbd_smooth_h_predictor_8x4_c(ptr nocapture noundef writeonly %0, i64 noundef %1, ptr nocapture noundef readonly %2, ptr nocapture noundef readonly %3, i32 noundef %4) local_unnamed_addr #0 {
  %6 = getelementptr i8, ptr %2, i64 14
  %7 = load i16, ptr %6, align 2
  br label %.preheader.us.i

.preheader.us.i:                                  ; preds = %._crit_edge.us.i, %5
  %indvars.iv40.i = phi i64 [ 0, %5 ], [ %indvars.iv.next41.i, %._crit_edge.us.i ]
  %.02832.us.i = phi ptr [ %0, %5 ], [ %25, %._crit_edge.us.i ]
  %8 = getelementptr inbounds i16, ptr %3, i64 %indvars.iv40.i
  br label %9

9:                                                ; preds = %14, %.preheader.us.i
  %indvars.iv37.i = phi i64 [ 0, %.preheader.us.i ], [ %indvars.iv.next38.i, %14 ]
  %10 = load i16, ptr %8, align 2
  %11 = getelementptr inbounds i8, ptr getelementptr inbounds (i8, ptr @sm_weight_arrays, i64 8), i64 %indvars.iv37.i
  %12 = load i8, ptr %11, align 1
  %13 = sub i8 0, %12
  br label %19

14:                                               ; preds = %19
  %15 = add i32 %24, 128
  %16 = lshr i32 %15, 8
  %17 = trunc i32 %16 to i16
  %18 = getelementptr inbounds i16, ptr %.02832.us.i, i64 %indvars.iv37.i
  store i16 %17, ptr %18, align 2
  %indvars.iv.next38.i = add nuw nsw i64 %indvars.iv37.i, 1
  %exitcond.not.i = icmp eq i64 %indvars.iv.next38.i, 8
  br i1 %exitcond.not.i, label %._crit_edge.us.i, label %9, !llvm.loop !30

19:                                               ; preds = %19, %9
  %20 = phi i1 [ false, %19 ], [ true, %9 ]
  %indvars.iv.i.sroa.phi.sroa.speculated = phi i8 [ %13, %19 ], [ %12, %9 ]
  %indvars.iv.i.sroa.phi.sroa.speculated9 = phi i16 [ %7, %19 ], [ %10, %9 ]
  %.02529.us.i = phi i32 [ %24, %19 ], [ 0, %9 ]
  %21 = zext i8 %indvars.iv.i.sroa.phi.sroa.speculated to i32
  %22 = zext i16 %indvars.iv.i.sroa.phi.sroa.speculated9 to i32
  %23 = mul nuw nsw i32 %22, %21
  %24 = add i32 %23, %.02529.us.i
  br i1 %20, label %19, label %14, !llvm.loop !31

._crit_edge.us.i:                                 ; preds = %14
  %25 = getelementptr inbounds i16, ptr %.02832.us.i, i64 %1
  %indvars.iv.next41.i = add nuw nsw i64 %indvars.iv40.i, 1
  %exitcond44.not.i = icmp eq i64 %indvars.iv.next41.i, 4
  br i1 %exitcond44.not.i, label %highbd_smooth_h_predictor.exit, label %.preheader.us.i, !llvm.loop !32

highbd_smooth_h_predictor.exit:                   ; preds = %._crit_edge.us.i
  ret void
}